target datalayout = "e-m:e-p270:32:32-p271:32:32-p272:64:64-i64:64-i128:128-f80:128-n8:16:32:64-S128"
target triple = "x86_64-pc-linux-gnu"

%union.pthread_mutex_t = type { %struct.__pthread_mutex_s }
%struct.__pthread_mutex_s = type { i32, i32, i32, i32, i32, i16, i16, %struct.__pthread_internal_list }
%struct.__pthread_internal_list = type { ptr, ptr }
%union.pthread_cond_t = type { %struct.__pthread_cond_s }
%struct.__pthread_cond_s = type { %union.__atomic_wide_counter, %union.__atomic_wide_counter, [2 x i32], [2 x i32], i32, i32, [2 x i32] }
%union.__atomic_wide_counter = type { i64 }

@do_run_conn_timeout_thread = internal global i32 0, align 4
@conn_timeout_lock = internal global %union.pthread_mutex_t zeroinitializer, align 8
@conn_timeout_cond = internal global %union.pthread_cond_t zeroinitializer, align 8
@conn_timeout_tid = internal global i64 0, align 8

; Function Attrs: nounwind uwtable
define dso_local i32 @stop_conn_timeout_thread() #0 {
  %1 = alloca i32, align 4
  %2 = load i32, ptr @do_run_conn_timeout_thread, align 4, !tbaa !8
  %3 = icmp ne i32 %2, 0
  br i1 %3, label %5, label %4

4:                                                ; preds = %0
  store i32 -1, ptr %1, align 4
  br label %11

5:                                                ; preds = %0
  %6 = call i32 @pthread_mutex_lock(ptr noundef @conn_timeout_lock) #15
  store i32 0, ptr @do_run_conn_timeout_thread, align 4, !tbaa !8
  %7 = call i32 @pthread_cond_signal(ptr noundef @conn_timeout_cond) #15
  %8 = call i32 @pthread_mutex_unlock(ptr noundef @conn_timeout_lock) #15
  %9 = load i64, ptr @conn_timeout_tid, align 8, !tbaa !4
  %10 = call i32 @pthread_join(i64 noundef %9, ptr noundef null)
  store i32 0, ptr %1, align 4
  br label %11

11:                                               ; preds = %5, %4
  %12 = load i32, ptr %1, align 4
  ret i32 %12
}