; Function Attrs: nounwind uwtable
define dso_local range(i32 -1, 1) i32 @stop_conn_timeout_thread() local_unnamed_addr #1 {
  %.b = load i1, ptr @do_run_conn_timeout_thread, align 4
  br i1 %.b, label %1, label %7

1:                                                ; preds = %0
  %2 = tail call i32 @pthread_mutex_lock(ptr noundef nonnull @conn_timeout_lock) #34
  store i1 false, ptr @do_run_conn_timeout_thread, align 4
  %3 = tail call i32 @pthread_cond_signal(ptr noundef nonnull @conn_timeout_cond) #34
  %4 = tail call i32 @pthread_mutex_unlock(ptr noundef nonnull @conn_timeout_lock) #34
  %5 = load i64, ptr @conn_timeout_tid, align 8, !tbaa !4
  %6 = tail call i32 @pthread_join(i64 noundef %5, ptr noundef null) #34
  br label %7

7:                                                ; preds = %0, %1
  %.0 = phi i32 [ 0, %1 ], [ -1, %0 ]
  ret i32 %.0
}